target datalayout = "e-m:e-p270:32:32-p271:32:32-p272:64:64-i64:64-i128:128-f80:128-n8:16:32:64-S128"
target triple = "x86_64-pc-linux-gnu"

%struct.jpeg_compress_struct = type { ptr, ptr, ptr, ptr, i32, i32, ptr, i32, i32, i32, i32, double, i32, i32, i32, ptr, [4 x ptr], [4 x ptr], [4 x ptr], [16 x i8], [16 x i8], [16 x i8], i32, ptr, i32, i32, i32, i32, i32, i32, i32, i32, i32, i8, i8, i8, i16, i16, i32, i32, i32, i32, i32, i32, i32, [4 x ptr], i32, i32, i32, [10 x i32], i32, i32, i32, i32, ptr, ptr, ptr, ptr, ptr, ptr, ptr, ptr, ptr, ptr, i32 }
%struct.jpeg_component_info = type { i32, i32, i32, i32, i32, i32, i32, i32, i32, i32, i32, i32, i32, i32, i32, i32, i32, i32, i32, ptr, ptr }

; Function Attrs: nounwind uwtable
define internal void @expand_right_edge(ptr noundef %0, i32 noundef %1, i32 noundef %2, i32 noundef %3) #0 {
  %5 = alloca ptr, align 8
  %6 = alloca i32, align 4
  %7 = alloca i32, align 4
  %8 = alloca i32, align 4
  %9 = alloca ptr, align 8
  %10 = alloca i8, align 1
  %11 = alloca i32, align 4
  %12 = alloca i32, align 4
  %13 = alloca i32, align 4
  store ptr %0, ptr %5, align 8
  store i32 %1, ptr %6, align 4
  store i32 %2, ptr %7, align 4
  store i32 %3, ptr %8, align 4
  %14 = load i32, ptr %8, align 4
  %15 = load i32, ptr %7, align 4
  %16 = sub i32 %14, %15
  store i32 %16, ptr %13, align 4
  %17 = load i32, ptr %13, align 4
  %18 = icmp sgt i32 %17, 0
  br i1 %18, label %19, label %52

19:                                               ; preds = %4
  store i32 0, ptr %12, align 4
  br label %20

20:                                               ; preds = %48, %19
  %21 = load i32, ptr %12, align 4
  %22 = load i32, ptr %6, align 4
  %23 = icmp slt i32 %21, %22
  br i1 %23, label %24, label %51

24:                                               ; preds = %20
  %25 = load ptr, ptr %5, align 8
  %26 = load i32, ptr %12, align 4
  %27 = sext i32 %26 to i64
  %28 = getelementptr inbounds ptr, ptr %25, i64 %27
  %29 = load ptr, ptr %28, align 8
  %30 = load i32, ptr %7, align 4
  %31 = zext i32 %30 to i64
  %32 = getelementptr inbounds i8, ptr %29, i64 %31
  store ptr %32, ptr %9, align 8
  %33 = load ptr, ptr %9, align 8
  %34 = getelementptr inbounds i8, ptr %33, i64 -1
  %35 = load i8, ptr %34, align 1
  store i8 %35, ptr %10, align 1
  %36 = load i32, ptr %13, align 4
  store i32 %36, ptr %11, align 4
  br label %37

37:                                               ; preds = %44, %24
  %38 = load i32, ptr %11, align 4
  %39 = icmp sgt i32 %38, 0
  br i1 %39, label %40, label %47

40:                                               ; preds = %37
  %41 = load i8, ptr %10, align 1
  %42 = load ptr, ptr %9, align 8
  %43 = getelementptr inbounds i8, ptr %42, i32 1
  store ptr %43, ptr %9, align 8
  store i8 %41, ptr %42, align 1
  br label %44

44:                                               ; preds = %40
  %45 = load i32, ptr %11, align 4
  %46 = add nsw i32 %45, -1
  store i32 %46, ptr %11, align 4
  br label %37, !llvm.loop !21

47:                                               ; preds = %37
  br label %48

48:                                               ; preds = %47
  %49 = load i32, ptr %12, align 4
  %50 = add nsw i32 %49, 1
  store i32 %50, ptr %12, align 4
  br label %20, !llvm.loop !22

51:                                               ; preds = %20
  br label %52

52:                                               ; preds = %51, %4
  ret void
}

; Function Attrs: nounwind uwtable
define internal void @h2v2_downsample(ptr noundef %0, ptr noundef %1, ptr noundef %2, ptr noundef %3) #0 {
  %5 = alloca ptr, align 8
  %6 = alloca ptr, align 8
  %7 = alloca ptr, align 8
  %8 = alloca ptr, align 8
  %9 = alloca i32, align 4
  %10 = alloca i32, align 4
  %11 = alloca i32, align 4
  %12 = alloca i32, align 4
  %13 = alloca ptr, align 8
  %14 = alloca ptr, align 8
  %15 = alloca ptr, align 8
  %16 = alloca i32, align 4
  store ptr %0, ptr %5, align 8
  store ptr %1, ptr %6, align 8
  store ptr %2, ptr %7, align 8
  store ptr %3, ptr %8, align 8
  %17 = load ptr, ptr %6, align 8
  %18 = getelementptr inbounds %struct.jpeg_component_info, ptr %17, i32 0, i32 7
  %19 = load i32, ptr %18, align 4
  %20 = mul i32 %19, 8
  store i32 %20, ptr %12, align 4
  %21 = load ptr, ptr %7, align 8
  %22 = load ptr, ptr %5, align 8
  %23 = getelementptr inbounds %struct.jpeg_compress_struct, ptr %22, i32 0, i32 42
  %24 = load i32, ptr %23, align 4
  %25 = load ptr, ptr %5, align 8
  %26 = getelementptr inbounds %struct.jpeg_compress_struct, ptr %25, i32 0, i32 7
  %27 = load i32, ptr %26, align 8
  %28 = load i32, ptr %12, align 4
  %29 = mul i32 %28, 2
  call void @expand_right_edge(ptr noundef %21, i32 noundef %24, i32 noundef %27, i32 noundef %29)
  store i32 0, ptr %9, align 4
  store i32 0, ptr %10, align 4
  br label %30

30:                                               ; preds = %93, %4
  %31 = load i32, ptr %10, align 4
  %32 = load ptr, ptr %6, align 8
  %33 = getelementptr inbounds %struct.jpeg_component_info, ptr %32, i32 0, i32 3
  %34 = load i32, ptr %33, align 4
  %35 = icmp slt i32 %31, %34
  br i1 %35, label %36, label %96

36:                                               ; preds = %30
  %37 = load ptr, ptr %8, align 8
  %38 = load i32, ptr %10, align 4
  %39 = sext i32 %38 to i64
  %40 = getelementptr inbounds ptr, ptr %37, i64 %39
  %41 = load ptr, ptr %40, align 8
  store ptr %41, ptr %15, align 8
  %42 = load ptr, ptr %7, align 8
  %43 = load i32, ptr %9, align 4
  %44 = sext i32 %43 to i64
  %45 = getelementptr inbounds ptr, ptr %42, i64 %44
  %46 = load ptr, ptr %45, align 8
  store ptr %46, ptr %13, align 8
  %47 = load ptr, ptr %7, align 8
  %48 = load i32, ptr %9, align 4
  %49 = add nsw i32 %48, 1
  %50 = sext i32 %49 to i64
  %51 = getelementptr inbounds ptr, ptr %47, i64 %50
  %52 = load ptr, ptr %51, align 8
  store ptr %52, ptr %14, align 8
  store i32 1, ptr %16, align 4
  store i32 0, ptr %11, align 4
  br label %53

53:                                               ; preds = %87, %36
  %54 = load i32, ptr %11, align 4
  %55 = load i32, ptr %12, align 4
  %56 = icmp ult i32 %54, %55
  br i1 %56, label %57, label %90

57:                                               ; preds = %53
  %58 = load ptr, ptr %13, align 8
  %59 = load i8, ptr %58, align 1
  %60 = zext i8 %59 to i32
  %61 = load ptr, ptr %13, align 8
  %62 = getelementptr inbounds i8, ptr %61, i64 1
  %63 = load i8, ptr %62, align 1
  %64 = zext i8 %63 to i32
  %65 = add nsw i32 %60, %64
  %66 = load ptr, ptr %14, align 8
  %67 = load i8, ptr %66, align 1
  %68 = zext i8 %67 to i32
  %69 = add nsw i32 %65, %68
  %70 = load ptr, ptr %14, align 8
  %71 = getelementptr inbounds i8, ptr %70, i64 1
  %72 = load i8, ptr %71, align 1
  %73 = zext i8 %72 to i32
  %74 = add nsw i32 %69, %73
  %75 = load i32, ptr %16, align 4
  %76 = add nsw i32 %74, %75
  %77 = ashr i32 %76, 2
  %78 = trunc i32 %77 to i8
  %79 = load ptr, ptr %15, align 8
  %80 = getelementptr inbounds i8, ptr %79, i32 1
  store ptr %80, ptr %15, align 8
  store i8 %78, ptr %79, align 1
  %81 = load i32, ptr %16, align 4
  %82 = xor i32 %81, 3
  store i32 %82, ptr %16, align 4
  %83 = load ptr, ptr %13, align 8
  %84 = getelementptr inbounds i8, ptr %83, i64 2
  store ptr %84, ptr %13, align 8
  %85 = load ptr, ptr %14, align 8
  %86 = getelementptr inbounds i8, ptr %85, i64 2
  store ptr %86, ptr %14, align 8
  br label %87

87:                                               ; preds = %57
  %88 = load i32, ptr %11, align 4
  %89 = add i32 %88, 1
  store i32 %89, ptr %11, align 4
  br label %53, !llvm.loop !15

90:                                               ; preds = %53
  %91 = load i32, ptr %9, align 4
  %92 = add nsw i32 %91, 2
  store i32 %92, ptr %9, align 4
  br label %93

93:                                               ; preds = %90
  %94 = load i32, ptr %10, align 4
  %95 = add nsw i32 %94, 1
  store i32 %95, ptr %10, align 4
  br label %30, !llvm.loop !16

96:                                               ; preds = %30
  ret void
}