; Function Attrs: nofree norecurse nosync nounwind memory(readwrite, inaccessiblemem: none) uwtable
define internal void @h2v2_downsample(ptr nocapture noundef readonly %0, ptr nocapture noundef readonly %1, ptr nocapture noundef readonly %2, ptr nocapture noundef readonly %3) #2 {
  %5 = getelementptr inbounds i8, ptr %1, i64 28
  %6 = load i32, ptr %5, align 4
  %7 = shl i32 %6, 3
  %8 = getelementptr inbounds i8, ptr %0, i64 316
  %9 = load i32, ptr %8, align 4
  %10 = getelementptr inbounds i8, ptr %0, i64 48
  %11 = load i32, ptr %10, align 8
  %12 = shl i32 %6, 4
  %13 = sub i32 %12, %11
  %14 = icmp sgt i32 %13, 0
  %15 = icmp sgt i32 %9, 0
  %or.cond.i = and i1 %15, %14
  br i1 %or.cond.i, label %.lr.ph20.i, label %expand_right_edge.exit

.lr.ph20.i:                                       ; preds = %4
  %16 = zext i32 %11 to i64
  %17 = xor i32 %11, -1
  %18 = add i32 %12, %17
  %19 = zext i32 %18 to i64
  %20 = add nuw nsw i64 %19, 1
  %wide.trip.count.i = zext nneg i32 %9 to i64
  br label %.lr.ph.us.i

.lr.ph.us.i:                                      ; preds = %.lr.ph.us.i, %.lr.ph20.i
  %indvars.iv.i = phi i64 [ 0, %.lr.ph20.i ], [ %indvars.iv.next.i, %.lr.ph.us.i ]
  %21 = getelementptr inbounds ptr, ptr %2, i64 %indvars.iv.i
  %22 = load ptr, ptr %21, align 8
  %23 = getelementptr inbounds i8, ptr %22, i64 %16
  %24 = getelementptr inbounds i8, ptr %23, i64 -1
  %25 = load i8, ptr %24, align 1
  tail call void @llvm.memset.p0.i64(ptr noundef nonnull align 1 dereferenceable(1) %23, i8 %25, i64 %20, i1 false)
  %indvars.iv.next.i = add nuw nsw i64 %indvars.iv.i, 1
  %exitcond.not.i = icmp eq i64 %indvars.iv.next.i, %wide.trip.count.i
  br i1 %exitcond.not.i, label %expand_right_edge.exit, label %.lr.ph.us.i, !llvm.loop !9

expand_right_edge.exit:                           ; preds = %.lr.ph.us.i, %4
  %26 = getelementptr inbounds i8, ptr %1, i64 12
  %27 = load i32, ptr %26, align 4
  %28 = icmp slt i32 %27, 1
  %.not = icmp eq i32 %7, 0
  %or.cond = or i1 %28, %.not
  br i1 %or.cond, label %._crit_edge40, label %.lr.ph.us

.lr.ph.us:                                        ; preds = %expand_right_edge.exit, %._crit_edge.us
  %indvars.iv42 = phi i64 [ %indvars.iv.next43, %._crit_edge.us ], [ 0, %expand_right_edge.exit ]
  %indvars.iv = phi i64 [ %indvars.iv.next, %._crit_edge.us ], [ 0, %expand_right_edge.exit ]
  %29 = getelementptr inbounds ptr, ptr %3, i64 %indvars.iv42
  %30 = load ptr, ptr %29, align 8
  %31 = getelementptr inbounds ptr, ptr %2, i64 %indvars.iv
  %32 = load ptr, ptr %31, align 8
  %33 = or disjoint i64 %indvars.iv, 1
  %34 = getelementptr inbounds ptr, ptr %2, i64 %33
  %35 = load ptr, ptr %34, align 8
  br label %36

36:                                               ; preds = %.lr.ph.us, %36
  %.036.us = phi i32 [ 1, %.lr.ph.us ], [ %54, %36 ]
  %.02635.us = phi ptr [ %30, %.lr.ph.us ], [ %53, %36 ]
  %.02734.us = phi ptr [ %35, %.lr.ph.us ], [ %56, %36 ]
  %.02833.us = phi ptr [ %32, %.lr.ph.us ], [ %55, %36 ]
  %.03032.us = phi i32 [ 0, %.lr.ph.us ], [ %57, %36 ]
  %37 = load i8, ptr %.02833.us, align 1
  %38 = zext i8 %37 to i32
  %39 = getelementptr inbounds i8, ptr %.02833.us, i64 1
  %40 = load i8, ptr %39, align 1
  %41 = zext i8 %40 to i32
  %42 = load i8, ptr %.02734.us, align 1
  %43 = zext i8 %42 to i32
  %44 = getelementptr inbounds i8, ptr %.02734.us, i64 1
  %45 = load i8, ptr %44, align 1
  %46 = zext i8 %45 to i32
  %47 = add nuw nsw i32 %.036.us, %38
  %48 = add nuw nsw i32 %47, %41
  %49 = add nuw nsw i32 %48, %43
  %50 = add nuw nsw i32 %49, %46
  %51 = lshr i32 %50, 2
  %52 = trunc nuw i32 %51 to i8
  %53 = getelementptr inbounds i8, ptr %.02635.us, i64 1
  store i8 %52, ptr %.02635.us, align 1
  %54 = xor i32 %.036.us, 3
  %55 = getelementptr inbounds i8, ptr %.02833.us, i64 2
  %56 = getelementptr inbounds i8, ptr %.02734.us, i64 2
  %57 = add nuw i32 %.03032.us, 1
  %exitcond.not = icmp eq i32 %57, %7
  br i1 %exitcond.not, label %._crit_edge.us, label %36, !llvm.loop !16

._crit_edge.us:                                   ; preds = %36
  %indvars.iv.next = add nuw nsw i64 %indvars.iv, 2
  %indvars.iv.next43 = add nuw nsw i64 %indvars.iv42, 1
  %58 = load i32, ptr %26, align 4
  %59 = sext i32 %58 to i64
  %60 = icmp slt i64 %indvars.iv.next43, %59
  br i1 %60, label %.lr.ph.us, label %._crit_edge40, !llvm.loop !17

._crit_edge40:                                    ; preds = %._crit_edge.us, %expand_right_edge.exit
  ret void
}